CCS PCM C Compiler, Version 5.015, 5967               04-dic.-24 01:57

               Filename:   C:\Users\Joss\Desktop\Meca\Programacion\Codigos pic\prueba.lst

               ROM used:   87 words (1%)
                           Largest free fragment is 2048
               RAM used:   6 (2%) at main() level
                           7 (2%) worst case
               Stack used: 1 locations
               Stack size: 8

*
0000:  MOVLW  00
0001:  MOVWF  0A
0002:  GOTO   018
0003:  NOP
.................... #include <16F877A.h> 
.................... //////////// Standard Header file for the PIC16F877A device //////////////// 
.................... /////////////////////////////////////////////////////////////////////////// 
.................... ////        (C) Copyright 1996, 2013 Custom Computer Services          //// 
.................... //// This source code may only be used by licensed users of the CCS C  //// 
.................... //// compiler.  This source code may only be distributed to other      //// 
.................... //// licensed users of the CCS C compiler.  No other use, reproduction //// 
.................... //// or distribution is permitted without written permission.          //// 
.................... //// Derivative programs created using this software in object code    //// 
.................... //// form are not restricted in any way.                               //// 
.................... /////////////////////////////////////////////////////////////////////////// 
.................... #device PIC16F877A 
....................  
.................... #list 
....................  
.................... #fuses NOWDT, hs 
.................... #use delay(clock=20M) 
0004:  MOVLW  22
0005:  MOVWF  04
0006:  BCF    03.7
0007:  MOVF   00,W
0008:  BTFSC  03.2
0009:  GOTO   017
000A:  MOVLW  06
000B:  MOVWF  78
000C:  CLRF   77
000D:  DECFSZ 77,F
000E:  GOTO   00D
000F:  DECFSZ 78,F
0010:  GOTO   00C
0011:  MOVLW  7B
0012:  MOVWF  77
0013:  DECFSZ 77,F
0014:  GOTO   013
0015:  DECFSZ 00,F
0016:  GOTO   00A
0017:  RETURN
....................  
.................... void main() { 
0018:  MOVF   03,W
0019:  ANDLW  1F
001A:  MOVWF  03
001B:  BSF    03.5
001C:  BSF    1F.0
001D:  BSF    1F.1
001E:  BSF    1F.2
001F:  BCF    1F.3
0020:  MOVLW  07
0021:  MOVWF  1C
0022:  BCF    03.7
....................     while (TRUE) { 
....................         // Secuencia 1 
....................         
....................         output_high(PIN_B1); 
0023:  BCF    06.1
0024:  BCF    03.5
0025:  BSF    06.1
....................         output_high(PIN_B2); 
0026:  BSF    03.5
0027:  BCF    06.2
0028:  BCF    03.5
0029:  BSF    06.2
....................         output_high(PIN_B3); 
002A:  BSF    03.5
002B:  BCF    06.3
002C:  BCF    03.5
002D:  BSF    06.3
....................         output_high(PIN_B3); 
002E:  BSF    03.5
002F:  BCF    06.3
0030:  BCF    03.5
0031:  BSF    06.3
....................         output_high(PIN_B4); 
0032:  BSF    03.5
0033:  BCF    06.4
0034:  BCF    03.5
0035:  BSF    06.4
....................         delay_ms(2000);  
0036:  MOVLW  08
0037:  MOVWF  21
0038:  MOVLW  FA
0039:  MOVWF  22
003A:  CALL   004
003B:  DECFSZ 21,F
003C:  GOTO   038
....................          
....................         output_low(PIN_B1); 
003D:  BSF    03.5
003E:  BCF    06.1
003F:  BCF    03.5
0040:  BCF    06.1
....................         output_low(PIN_B2); 
0041:  BSF    03.5
0042:  BCF    06.2
0043:  BCF    03.5
0044:  BCF    06.2
....................         output_low(PIN_B3); 
0045:  BSF    03.5
0046:  BCF    06.3
0047:  BCF    03.5
0048:  BCF    06.3
....................         output_low(PIN_B3); 
0049:  BSF    03.5
004A:  BCF    06.3
004B:  BCF    03.5
004C:  BCF    06.3
....................          
....................         delay_ms(2000);  
004D:  MOVLW  08
004E:  MOVWF  21
004F:  MOVLW  FA
0050:  MOVWF  22
0051:  CALL   004
0052:  DECFSZ 21,F
0053:  GOTO   04F
0054:  BSF    03.5
0055:  GOTO   023
....................          
....................  
....................         } 
.................... } 
0056:  SLEEP

Configuration Fuses:
   Word  1: 3F72   HS NOWDT PUT BROWNOUT NOLVP NOCPD NOWRT NODEBUG NOPROTECT
