CCS PCM C Compiler, Version 5.015, 5967               14-jul.-24 09:50

               Filename:   C:\Users\Joss\Documents\Codigos pic\semaforo definitivo.lst

               ROM used:   160 words (2%)
                           Largest free fragment is 2048
               RAM used:   6 (2%) at main() level
                           7 (2%) worst case
               Stack used: 1 locations
               Stack size: 8

*
0000:  MOVLW  00
0001:  MOVWF  0A
0002:  GOTO   019
0003:  NOP
.................... #include <16F877A.h> 
.................... //////////// Standard Header file for the PIC16F877A device //////////////// 
.................... /////////////////////////////////////////////////////////////////////////// 
.................... ////        (C) Copyright 1996, 2013 Custom Computer Services          //// 
.................... //// This source code may only be used by licensed users of the CCS C  //// 
.................... //// compiler.  This source code may only be distributed to other      //// 
.................... //// licensed users of the CCS C compiler.  No other use, reproduction //// 
.................... //// or distribution is permitted without written permission.          //// 
.................... //// Derivative programs created using this software in object code    //// 
.................... //// form are not restricted in any way.                               //// 
.................... /////////////////////////////////////////////////////////////////////////// 
.................... #device PIC16F877A 
....................  
.................... #list 
....................  
.................... #fuses NOWDT, XT 
.................... #use delay(clock=4M) 
0004:  MOVLW  22
0005:  MOVWF  04
0006:  BCF    03.7
0007:  MOVF   00,W
0008:  BTFSC  03.2
0009:  GOTO   018
000A:  MOVLW  01
000B:  MOVWF  78
000C:  CLRF   77
000D:  DECFSZ 77,F
000E:  GOTO   00D
000F:  DECFSZ 78,F
0010:  GOTO   00C
0011:  MOVLW  4A
0012:  MOVWF  77
0013:  DECFSZ 77,F
0014:  GOTO   013
0015:  GOTO   016
0016:  DECFSZ 00,F
0017:  GOTO   00A
0018:  RETURN
....................  
.................... void main() { 
0019:  MOVF   03,W
001A:  ANDLW  1F
001B:  MOVWF  03
001C:  BSF    03.5
001D:  BSF    1F.0
001E:  BSF    1F.1
001F:  BSF    1F.2
0020:  BCF    1F.3
0021:  MOVLW  07
0022:  MOVWF  1C
0023:  BCF    03.7
....................     while (TRUE) { 
....................         // Secuencia 1 
....................         
....................         output_high(PIN_A0); 
0024:  BCF    05.0
0025:  BCF    03.5
0026:  BSF    05.0
....................         output_high(PIN_A2); 
0027:  BSF    03.5
0028:  BCF    05.2
0029:  BCF    03.5
002A:  BSF    05.2
....................         output_high(PIN_E0); 
002B:  BSF    03.5
002C:  BCF    09.0
002D:  BCF    03.5
002E:  BSF    09.0
....................         output_high(PIN_B3); 
002F:  BSF    03.5
0030:  BCF    06.3
0031:  BCF    03.5
0032:  BSF    06.3
....................         delay_ms(800);  
0033:  MOVLW  04
0034:  MOVWF  21
0035:  MOVLW  C8
0036:  MOVWF  22
0037:  CALL   004
0038:  DECFSZ 21,F
0039:  GOTO   035
....................  
....................         output_low(PIN_A0); 
003A:  BSF    03.5
003B:  BCF    05.0
003C:  BCF    03.5
003D:  BCF    05.0
....................         output_low(PIN_A2); 
003E:  BSF    03.5
003F:  BCF    05.2
0040:  BCF    03.5
0041:  BCF    05.2
....................         output_low(PIN_E0); 
0042:  BSF    03.5
0043:  BCF    09.0
0044:  BCF    03.5
0045:  BCF    09.0
....................         output_low(PIN_B3); 
0046:  BSF    03.5
0047:  BCF    06.3
0048:  BCF    03.5
0049:  BCF    06.3
....................         delay_ms(800);  
004A:  MOVLW  04
004B:  MOVWF  21
004C:  MOVLW  C8
004D:  MOVWF  22
004E:  CALL   004
004F:  DECFSZ 21,F
0050:  GOTO   04C
....................  
....................         // Secuencia 2 
....................         output_high(PIN_A1); 
0051:  BSF    03.5
0052:  BCF    05.1
0053:  BCF    03.5
0054:  BSF    05.1
....................         output_high(PIN_A2); 
0055:  BSF    03.5
0056:  BCF    05.2
0057:  BCF    03.5
0058:  BSF    05.2
....................         output_high(PIN_A5); 
0059:  BSF    03.5
005A:  BCF    05.5
005B:  BCF    03.5
005C:  BSF    05.5
....................         delay_ms(800);  
005D:  MOVLW  04
005E:  MOVWF  21
005F:  MOVLW  C8
0060:  MOVWF  22
0061:  CALL   004
0062:  DECFSZ 21,F
0063:  GOTO   05F
....................  
....................         output_low(PIN_A1); 
0064:  BSF    03.5
0065:  BCF    05.1
0066:  BCF    03.5
0067:  BCF    05.1
....................         output_low(PIN_A2); 
0068:  BSF    03.5
0069:  BCF    05.2
006A:  BCF    03.5
006B:  BCF    05.2
....................         output_low(PIN_A5); 
006C:  BSF    03.5
006D:  BCF    05.5
006E:  BCF    03.5
006F:  BCF    05.5
....................         delay_ms(800);  
0070:  MOVLW  04
0071:  MOVWF  21
0072:  MOVLW  C8
0073:  MOVWF  22
0074:  CALL   004
0075:  DECFSZ 21,F
0076:  GOTO   072
....................  
....................         // Secuencia 3 
....................         output_high(PIN_A0); 
0077:  BSF    03.5
0078:  BCF    05.0
0079:  BCF    03.5
007A:  BSF    05.0
....................         output_high(PIN_A3); 
007B:  BSF    03.5
007C:  BCF    05.3
007D:  BCF    03.5
007E:  BSF    05.3
....................         output_high(PIN_A5); 
007F:  BSF    03.5
0080:  BCF    05.5
0081:  BCF    03.5
0082:  BSF    05.5
....................         delay_ms(800);  
0083:  MOVLW  04
0084:  MOVWF  21
0085:  MOVLW  C8
0086:  MOVWF  22
0087:  CALL   004
0088:  DECFSZ 21,F
0089:  GOTO   085
....................  
....................         output_low(PIN_A0); 
008A:  BSF    03.5
008B:  BCF    05.0
008C:  BCF    03.5
008D:  BCF    05.0
....................         output_low(PIN_A3); 
008E:  BSF    03.5
008F:  BCF    05.3
0090:  BCF    03.5
0091:  BCF    05.3
....................         output_low(PIN_A5); 
0092:  BSF    03.5
0093:  BCF    05.5
0094:  BCF    03.5
0095:  BCF    05.5
....................         delay_ms(800); 
0096:  MOVLW  04
0097:  MOVWF  21
0098:  MOVLW  C8
0099:  MOVWF  22
009A:  CALL   004
009B:  DECFSZ 21,F
009C:  GOTO   098
009D:  BSF    03.5
009E:  GOTO   024
....................         } 
.................... } 
....................  
009F:  SLEEP

Configuration Fuses:
   Word  1: 3F71   XT NOWDT PUT BROWNOUT NOLVP NOCPD NOWRT NODEBUG NOPROTECT
